target datalayout = "e-m:e-p270:32:32-p271:32:32-p272:64:64-i64:64-i128:128-f80:128-n8:16:32:64-S128"
target triple = "x86_64-pc-linux-gnu"

%"class.ceres::internal::StateUpdatingCallback" = type { %"class.ceres::IterationCallback", ptr, ptr }
%"class.ceres::IterationCallback" = type { ptr }

; Function Attrs: mustprogress uwtable
define hidden noundef i32 @_ZN5ceres8internal21StateUpdatingCallbackclERKNS_16IterationSummaryE(ptr noundef nonnull align 8 dereferenceable(24) %0, ptr noundef nonnull align 8 dereferenceable(120) %1) unnamed_addr #7 align 2 {
  %3 = alloca ptr, align 8
  %4 = alloca ptr, align 8
  store ptr %0, ptr %3, align 8, !tbaa !3
  store ptr %1, ptr %4, align 8, !tbaa !20
  %5 = load ptr, ptr %3, align 8
  %6 = getelementptr inbounds nuw %"class.ceres::internal::StateUpdatingCallback", ptr %5, i32 0, i32 1
  %7 = load ptr, ptr %6, align 8, !tbaa !14
  %8 = getelementptr inbounds nuw %"class.ceres::internal::StateUpdatingCallback", ptr %5, i32 0, i32 2
  %9 = load ptr, ptr %8, align 8, !tbaa !17
  %10 = call noundef zeroext i1 @_ZN5ceres8internal7Program28StateVectorToParameterBlocksEPKd(ptr noundef nonnull align 8 dereferenceable(56) %7, ptr noundef %9)
  %11 = getelementptr inbounds nuw %"class.ceres::internal::StateUpdatingCallback", ptr %5, i32 0, i32 1
  %12 = load ptr, ptr %11, align 8, !tbaa !14
  call void @_ZN5ceres8internal7Program34CopyParameterBlockStateToUserStateEv(ptr noundef nonnull align 8 dereferenceable(56) %12)
  ret i32 0
}