; Function Attrs: mustprogress uwtable
define hidden noundef i32 @_ZN5ceres8internal21StateUpdatingCallbackclERKNS_16IterationSummaryE(ptr noundef nonnull readonly align 8 captures(none) dereferenceable(24) %0, ptr nonnull readnone align 8 captures(none) %1) unnamed_addr #6 align 2 {
  %3 = getelementptr inbounds nuw i8, ptr %0, i64 8
  %4 = load ptr, ptr %3, align 8, !tbaa !6
  %5 = getelementptr inbounds nuw i8, ptr %0, i64 16
  %6 = load ptr, ptr %5, align 8, !tbaa !13
  %7 = tail call noundef zeroext i1 @_ZN5ceres8internal7Program28StateVectorToParameterBlocksEPKd(ptr noundef nonnull align 8 dereferenceable(56) %4, ptr noundef %6)
  %8 = load ptr, ptr %3, align 8, !tbaa !6
  tail call void @_ZN5ceres8internal7Program34CopyParameterBlockStateToUserStateEv(ptr noundef nonnull align 8 dereferenceable(56) %8)
  ret i32 0
}